target datalayout = "e-m:e-p270:32:32-p271:32:32-p272:64:64-i64:64-i128:128-f80:128-n8:16:32:64-S128"
target triple = "x86_64-pc-linux-gnu"

%"struct.Luau::Compile::Constant" = type { i32, i32, %union.anon }
%union.anon = type { double, [8 x i8] }

@.str.59 = private unnamed_addr constant [4 x i8] c"nil\00", align 1
@.str.60 = private unnamed_addr constant [8 x i8] c"boolean\00", align 1
@.str.61 = private unnamed_addr constant [7 x i8] c"number\00", align 1
@.str.62 = private unnamed_addr constant [7 x i8] c"vector\00", align 1
@.str.63 = private unnamed_addr constant [7 x i8] c"string\00", align 1

; Function Attrs: inlinehint mustprogress nounwind uwtable
define linkonce_odr dso_local void @_ZN4Luau7Compile8ConstantC2Ev(ptr noundef nonnull align 8 dereferenceable(24) %0) unnamed_addr #8 comdat align 2 {
  %2 = alloca ptr, align 8
  store ptr %0, ptr %2, align 8, !tbaa !22
  %3 = load ptr, ptr %2, align 8
  %4 = getelementptr inbounds nuw %"struct.Luau::Compile::Constant", ptr %3, i32 0, i32 0
  store i32 0, ptr %4, align 8, !tbaa !26
  %5 = getelementptr inbounds nuw %"struct.Luau::Compile::Constant", ptr %3, i32 0, i32 1
  store i32 0, ptr %5, align 4, !tbaa !39
  %6 = getelementptr inbounds nuw %"struct.Luau::Compile::Constant", ptr %3, i32 0, i32 2
  store ptr null, ptr %6, align 8, !tbaa !29
  ret void
}

; Function Attrs: mustprogress nounwind uwtable
define internal void @_ZN4Luau7CompileL4cvarEv(ptr dead_on_unwind noalias writable sret(%"struct.Luau::Compile::Constant") align 8 %0) #2 {
  call void @llvm.memset.p0.i64(ptr align 8 %0, i8 0, i64 24, i1 false)
  call void @_ZN4Luau7Compile8ConstantC2Ev(ptr noundef nonnull align 8 dereferenceable(24) %0) #10
  ret void
}

; Function Attrs: mustprogress nounwind uwtable
define internal void @_ZN4Luau7CompileL7cstringEPKc(ptr dead_on_unwind noalias writable sret(%"struct.Luau::Compile::Constant") align 8 %0, ptr noundef %1) #2 {
  %3 = alloca ptr, align 8
  store ptr %1, ptr %3, align 8, !tbaa !11
  %4 = getelementptr inbounds nuw %"struct.Luau::Compile::Constant", ptr %0, i32 0, i32 0
  store i32 5, ptr %4, align 8, !tbaa !26
  %5 = getelementptr inbounds nuw %"struct.Luau::Compile::Constant", ptr %0, i32 0, i32 1
  store i32 0, ptr %5, align 4, !tbaa !39
  %6 = getelementptr inbounds nuw %"struct.Luau::Compile::Constant", ptr %0, i32 0, i32 2
  store ptr null, ptr %6, align 8, !tbaa !29
  %7 = load ptr, ptr %3, align 8, !tbaa !11
  %8 = call i64 @strlen(ptr noundef %7) #11
  %9 = trunc i64 %8 to i32
  %10 = getelementptr inbounds nuw %"struct.Luau::Compile::Constant", ptr %0, i32 0, i32 1
  store i32 %9, ptr %10, align 4, !tbaa !39
  %11 = load ptr, ptr %3, align 8, !tbaa !11
  %12 = getelementptr inbounds nuw %"struct.Luau::Compile::Constant", ptr %0, i32 0, i32 2
  store ptr %11, ptr %12, align 8, !tbaa !29
  ret void
}

; Function Attrs: mustprogress uwtable
define internal void @_ZN4Luau7CompileL5ctypeERKNS0_8ConstantE(ptr dead_on_unwind noalias writable sret(%"struct.Luau::Compile::Constant") align 8 %0, ptr noundef nonnull align 8 dereferenceable(24) %1) #3 {
  %3 = alloca ptr, align 8
  store ptr %1, ptr %3, align 8, !tbaa !22
  %4 = load ptr, ptr %3, align 8, !tbaa !22
  %5 = getelementptr inbounds nuw %"struct.Luau::Compile::Constant", ptr %4, i32 0, i32 0
  %6 = load i32, ptr %5, align 8, !tbaa !26
  switch i32 %6, label %12 [
    i32 1, label %7
    i32 2, label %8
    i32 3, label %9
    i32 4, label %10
    i32 5, label %11
  ]

7:                                                ; preds = %2
  call void @_ZN4Luau7CompileL7cstringEPKc(ptr dead_on_unwind writable sret(%"struct.Luau::Compile::Constant") align 8 %0, ptr noundef @.str.59)
  br label %13

8:                                                ; preds = %2
  call void @_ZN4Luau7CompileL7cstringEPKc(ptr dead_on_unwind writable sret(%"struct.Luau::Compile::Constant") align 8 %0, ptr noundef @.str.60)
  br label %13

9:                                                ; preds = %2
  call void @_ZN4Luau7CompileL7cstringEPKc(ptr dead_on_unwind writable sret(%"struct.Luau::Compile::Constant") align 8 %0, ptr noundef @.str.61)
  br label %13

10:                                               ; preds = %2
  call void @_ZN4Luau7CompileL7cstringEPKc(ptr dead_on_unwind writable sret(%"struct.Luau::Compile::Constant") align 8 %0, ptr noundef @.str.62)
  br label %13

11:                                               ; preds = %2
  call void @_ZN4Luau7CompileL7cstringEPKc(ptr dead_on_unwind writable sret(%"struct.Luau::Compile::Constant") align 8 %0, ptr noundef @.str.63)
  br label %13

12:                                               ; preds = %2
  call void @_ZN4Luau7CompileL4cvarEv(ptr dead_on_unwind writable sret(%"struct.Luau::Compile::Constant") align 8 %0)
  br label %13

13:                                               ; preds = %12, %11, %10, %9, %8, %7
  ret void
}