; Function Attrs: mustprogress nofree norecurse nosync nounwind willreturn memory(argmem: write) uwtable
define internal fastcc void @_ZN4Luau7CompileL5ctypeERKNS0_8ConstantE(ptr dead_on_unwind noalias writable writeonly align 8 captures(none) initializes((0, 16)) %0, i32 %.0.val) unnamed_addr #6 {
  switch i32 %.0.val, label %17 [
    i32 1, label %2
    i32 2, label %5
    i32 3, label %8
    i32 4, label %11
    i32 5, label %14
  ]

2:                                                ; preds = %1
  store i32 5, ptr %0, align 8, !tbaa !8, !alias.scope !196
  %3 = getelementptr inbounds nuw i8, ptr %0, i64 4
  %4 = getelementptr inbounds nuw i8, ptr %0, i64 8
  store i32 3, ptr %3, align 4, !tbaa !15, !alias.scope !196
  store ptr @.str.59, ptr %4, align 8, !tbaa !11, !alias.scope !196
  br label %18

5:                                                ; preds = %1
  store i32 5, ptr %0, align 8, !tbaa !8, !alias.scope !199
  %6 = getelementptr inbounds nuw i8, ptr %0, i64 4
  %7 = getelementptr inbounds nuw i8, ptr %0, i64 8
  store i32 7, ptr %6, align 4, !tbaa !15, !alias.scope !199
  store ptr @.str.60, ptr %7, align 8, !tbaa !11, !alias.scope !199
  br label %18

8:                                                ; preds = %1
  store i32 5, ptr %0, align 8, !tbaa !8, !alias.scope !202
  %9 = getelementptr inbounds nuw i8, ptr %0, i64 4
  %10 = getelementptr inbounds nuw i8, ptr %0, i64 8
  store i32 6, ptr %9, align 4, !tbaa !15, !alias.scope !202
  store ptr @.str.61, ptr %10, align 8, !tbaa !11, !alias.scope !202
  br label %18

11:                                               ; preds = %1
  store i32 5, ptr %0, align 8, !tbaa !8, !alias.scope !205
  %12 = getelementptr inbounds nuw i8, ptr %0, i64 4
  %13 = getelementptr inbounds nuw i8, ptr %0, i64 8
  store i32 6, ptr %12, align 4, !tbaa !15, !alias.scope !205
  store ptr @.str.62, ptr %13, align 8, !tbaa !11, !alias.scope !205
  br label %18

14:                                               ; preds = %1
  store i32 5, ptr %0, align 8, !tbaa !8, !alias.scope !208
  %15 = getelementptr inbounds nuw i8, ptr %0, i64 4
  %16 = getelementptr inbounds nuw i8, ptr %0, i64 8
  store i32 6, ptr %15, align 4, !tbaa !15, !alias.scope !208
  store ptr @.str.63, ptr %16, align 8, !tbaa !11, !alias.scope !208
  br label %18

17:                                               ; preds = %1
  tail call void @llvm.memset.p0.i64(ptr noundef nonnull align 8 dereferenceable(24) %0, i8 0, i64 24, i1 false), !alias.scope !211
  br label %18

18:                                               ; preds = %17, %14, %11, %8, %5, %2
  ret void
}